Certificate:
    Data:
        Version: 3 (0x2)
        Serial Number: 11345 (0x2c51)
        Signature Algorithm: sha256WithRSAEncryption
        Issuer: C=US, ST=Washington, L=Seattle, O=getaCert - www.getacert.com
        Validity
            Not Before: Dec  1 19:57:10 2023 GMT
            Not After : Jan 30 19:57:10 2024 GMT
        Subject: C=FI, ST=Uusimaa, L=Helsinki, O=Molemmat Oy, CN=test.opalopc.com
        Subject Public Key Info:
            Public Key Algorithm: rsaEncryption
                RSA Public-Key: (1024 bit)
                Modulus:
                    00:89:9b:3b:7d:b3:cb:82:16:c4:50:99:42:e1:59:
                    f8:11:f4:33:c7:e9:56:63:c9:a5:f1:b4:eb:b2:56:
                    ba:ce:38:f9:23:fc:c6:17:dd:bc:73:5e:3c:19:95:
                    db:4a:93:69:ec:40:cf:32:71:ba:d5:aa:7b:be:e5:
                    64:d6:7c:0f:49:c7:46:6b:66:aa:37:98:e2:ec:47:
                    8d:b1:4b:9d:6f:92:8a:c3:b0:3a:39:80:8a:81:20:
                    7c:fc:24:71:7b:74:11:38:e7:e6:05:90:c2:b0:c2:
                    04:57:01:81:81:b5:09:6e:f6:4f:cc:95:11:6c:e5:
                    63:04:ec:0b:c2:08:82:47:27
                Exponent: 65537 (0x10001)
        X509v3 extensions:
            X509v3 Basic Constraints: 
                CA:FALSE
            Netscape Cert Type: 
                SSL Client, SSL Server, S/MIME, Object Signing
            X509v3 Key Usage: 
                Key Encipherment
            X509v3 Subject Alternative Name: 
                DNS:test.opalopc.com
    Signature Algorithm: sha256WithRSAEncryption
         49:89:5d:5b:22:4d:5c:ec:53:6b:11:44:48:c7:2d:f2:33:4c:
         62:3f:b0:73:ac:88:ef:0e:f6:e1:35:56:f1:c8:0f:01:0d:3b:
         4b:b6:09:8e:82:67:61:d9:bd:0d:0d:c7:a4:3c:97:f2:0f:38:
         93:78:06:e3:05:4d:1b:66:a8:95:c8:d9:56:57:16:6b:a1:6a:
         ee:c0:3a:78:d7:62:c2:b7:00:f9:d5:12:70:36:3f:29:e9:85:
         db:a9:24:e5:a4:99:39:96:6d:66:a5:6c:7f:f4:81:7c:09:f8:
         83:f4:07:2e:48:85:4d:8f:81:44:ca:92:2f:43:f9:ef:46:25:
         8a:98:f0:72:c2:fd:79:63:4c:14:60:ea:d8:67:4f:93:b9:9f:
         65:83:a7:b6:bb:9d:53:22:2f:93:12:c7:fd:34:9d:d8:65:9c:
         dc:bd:27:e1:10:73:0d:15:24:23:e3:59:0e:d2:62:32:ff:4c:
         d5:f6:0c:83:a4:e0:d8:a3:51:ee:7d:1c:f7:70:5b:1d:86:a0:
         53:80:a1:00:00:47:9b:07:eb:be:bd:f3:ac:ec:99:44:b4:cf:
         03:03:a2:e9:df:24:1e:ad:1a:92:de:ea:05:3a:f0:9b:05:0c:
         43:0d:2c:3e:dd:89:31:84:a8:c3:86:21:82:2d:e2:c6:a2:cc:
         96:c8:39:1d
-----BEGIN CERTIFICATE-----
MIIC/zCCAeegAwIBAgICLFEwDQYJKoZIhvcNAQELBQAwWjELMAkGA1UEBhMCVVMx
EzARBgNVBAgTCldhc2hpbmd0b24xEDAOBgNVBAcTB1NlYXR0bGUxJDAiBgNVBAoT
G2dldGFDZXJ0IC0gd3d3LmdldGFjZXJ0LmNvbTAeFw0yMzEyMDExOTU3MTBaFw0y
NDAxMzAxOTU3MTBaMGMxCzAJBgNVBAYTAkZJMRAwDgYDVQQIDAdVdXNpbWFhMREw
DwYDVQQHDAhIZWxzaW5raTEUMBIGA1UECgwLTW9sZW1tYXQgT3kxGTAXBgNVBAMM
EHRlc3Qub3BhbG9wYy5jb20wgZ8wDQYJKoZIhvcNAQEBBQADgY0AMIGJAoGBAImb
O32zy4IWxFCZQuFZ+BH0M8fpVmPJpfG067JWus44+SP8xhfdvHNePBmV20qTaexA
zzJxutWqe77lZNZ8D0nHRmtmqjeY4uxHjbFLnW+SisOwOjmAioEgfPwkcXt0ETjn
5gWQwrDCBFcBgYG1CW72T8yVEWzlYwTsC8IIgkcnAgMBAAGjSjBIMAkGA1UdEwQC
MAAwEQYJYIZIAYb4QgEBBAQDAgTwMAsGA1UdDwQEAwIFIDAbBgNVHREEFDASghB0
ZXN0Lm9wYWxvcGMuY29tMA0GCSqGSIb3DQEBCwUAA4IBAQBJiV1bIk1c7FNrEURI
xy3yM0xiP7BzrIjvDvbhNVbxyA8BDTtLtgmOgmdh2b0NDcekPJfyDziTeAbjBU0b
ZqiVyNlWVxZroWruwDp412LCtwD51RJwNj8p6YXbqSTlpJk5lm1mpWx/9IF8CfiD
9AcuSIVNj4FEypIvQ/nvRiWKmPBywv15Y0wUYOrYZ0+TuZ9lg6e2u51TIi+TEsf9
NJ3YZZzcvSfhEHMNFSQj41kO0mIy/0zV9gyDpODYo1HufRz3cFsdhqBTgKEAAEeb
B+u+vfOs7JlEtM8DA6Lp3yQerRqS3uoFOvCbBQxDDSw+3YkxhKjDhiGCLeLGosyW
yDkd
-----END CERTIFICATE-----
